; Function Attrs: null_pointer_is_valid sspstrong uwtable
define internal noundef i32 @format_amqp_0_10_uint(ptr noundef %0, i32 noundef %1, i32 noundef returned %2, ptr noundef writeonly captures(none) initializes((0, 8)) %3) #0 {
  switch i32 %2, label %13 [
    i32 1, label %5
    i32 2, label %8
    i32 4, label %11
  ]

5:                                                ; preds = %4
  %6 = tail call zeroext i8 @tvb_get_uint8(ptr noundef %0, i32 noundef %1)
  %7 = zext i8 %6 to i32
  br label %16

8:                                                ; preds = %4
  %9 = tail call zeroext i16 @tvb_get_ntohs(ptr noundef %0, i32 noundef %1)
  %10 = zext i16 %9 to i32
  br label %16

11:                                               ; preds = %4
  %12 = tail call i32 @tvb_get_ntohl(ptr noundef %0, i32 noundef %1)
  br label %16

13:                                               ; preds = %4
  %14 = tail call ptr @wmem_packet_scope()
  %15 = tail call noalias ptr (ptr, ptr, ...) @wmem_strdup_printf(ptr noundef %14, ptr noundef nonnull @.str.1516, i32 noundef %2)
  br label %19

16:                                               ; preds = %8, %11, %5
  %.0 = phi i32 [ %7, %5 ], [ %10, %8 ], [ %12, %11 ]
  %17 = tail call ptr @wmem_packet_scope()
  %18 = tail call noalias ptr (ptr, ptr, ...) @wmem_strdup_printf(ptr noundef %17, ptr noundef nonnull @.str.1517, i32 noundef %.0)
  br label %19

19:                                               ; preds = %16, %13
  %storemerge = phi ptr [ %15, %13 ], [ %18, %16 ]
  store ptr %storemerge, ptr %3, align 8
  ret i32 %2
}